target datalayout = "e-m:e-p270:32:32-p271:32:32-p272:64:64-i64:64-i128:128-f80:128-n8:16:32:64-S128"
target triple = "x86_64-pc-linux-gnu"

%"class.grpc_core::ChannelArgs::Pointer" = type { ptr, ptr }

; Function Attrs: noinline noreturn nounwind uwtable
define linkonce_odr hidden void @__clang_call_terminate(ptr noundef %0) #7 comdat {
  %2 = call ptr @__cxa_begin_catch(ptr %0) #3
  call void @_ZSt9terminatev() #22
  unreachable
}

; Function Attrs: mustprogress nounwind uwtable
define noundef ptr @_ZN9grpc_core11ChannelArgs7Pointer11EmptyVTableEv() #6 align 2 {
  ret ptr @_ZZN9grpc_core11ChannelArgs7Pointer11EmptyVTableEvE6vtable
}

; Function Attrs: mustprogress nounwind uwtable
define void @_ZN9grpc_core11ChannelArgs7PointerC2EOS1_(ptr noundef nonnull align 8 dereferenceable(16) %0, ptr noundef nonnull align 8 dereferenceable(16) %1) unnamed_addr #6 align 2 personality ptr @__gxx_personality_v0 {
  %3 = alloca ptr, align 8
  %4 = alloca ptr, align 8
  store ptr %0, ptr %3, align 8, !tbaa !7
  store ptr %1, ptr %4, align 8, !tbaa !7
  %5 = load ptr, ptr %3, align 8
  %6 = getelementptr inbounds nuw %"class.grpc_core::ChannelArgs::Pointer", ptr %5, i32 0, i32 0
  %7 = load ptr, ptr %4, align 8, !tbaa !7
  %8 = getelementptr inbounds nuw %"class.grpc_core::ChannelArgs::Pointer", ptr %7, i32 0, i32 0
  %9 = load ptr, ptr %8, align 8, !tbaa !11
  store ptr %9, ptr %6, align 8, !tbaa !11
  %10 = getelementptr inbounds nuw %"class.grpc_core::ChannelArgs::Pointer", ptr %5, i32 0, i32 1
  %11 = load ptr, ptr %4, align 8, !tbaa !7
  %12 = getelementptr inbounds nuw %"class.grpc_core::ChannelArgs::Pointer", ptr %11, i32 0, i32 1
  %13 = load ptr, ptr %12, align 8, !tbaa !13
  store ptr %13, ptr %10, align 8, !tbaa !13
  %14 = load ptr, ptr %4, align 8, !tbaa !7
  %15 = getelementptr inbounds nuw %"class.grpc_core::ChannelArgs::Pointer", ptr %14, i32 0, i32 0
  store ptr null, ptr %15, align 8, !tbaa !11
  %16 = invoke noundef ptr @_ZN9grpc_core11ChannelArgs7Pointer11EmptyVTableEv()
          to label %17 unwind label %20

17:                                               ; preds = %2
  %18 = load ptr, ptr %4, align 8, !tbaa !7
  %19 = getelementptr inbounds nuw %"class.grpc_core::ChannelArgs::Pointer", ptr %18, i32 0, i32 1
  store ptr %16, ptr %19, align 8, !tbaa !13
  ret void

20:                                               ; preds = %2
  %21 = landingpad { ptr, i32 }
          catch ptr null
  %22 = extractvalue { ptr, i32 } %21, 0
  call void @__clang_call_terminate(ptr %22) #22
  unreachable
}