; Function Attrs: mustprogress nofree norecurse nosync nounwind willreturn memory(argmem: readwrite) uwtable
define void @_ZN9grpc_core11ChannelArgs7PointerC2EOS1_(ptr noundef nonnull writeonly align 8 captures(none) dereferenceable(16) initializes((0, 16)) %0, ptr noundef nonnull align 8 captures(none) dereferenceable(16) %1) unnamed_addr #10 align 2 personality ptr @__gxx_personality_v0 {
  %3 = load ptr, ptr %1, align 8, !tbaa !14
  store ptr %3, ptr %0, align 8, !tbaa !14
  %4 = getelementptr inbounds nuw i8, ptr %0, i64 8
  %5 = getelementptr inbounds nuw i8, ptr %1, i64 8
  %6 = load ptr, ptr %5, align 8, !tbaa !18
  store ptr %6, ptr %4, align 8, !tbaa !18
  store ptr null, ptr %1, align 8, !tbaa !14
  store ptr @_ZZN9grpc_core11ChannelArgs7Pointer11EmptyVTableEvE6vtable, ptr %5, align 8, !tbaa !18
  ret void
}